target datalayout = "e-m:e-p270:32:32-p271:32:32-p272:64:64-i64:64-i128:128-f80:128-n8:16:32:64-S128"
target triple = "x86_64-pc-linux-gnu"

%"class.std::__cxx11::basic_string" = type { %"struct.std::__cxx11::basic_string<char>::_Alloc_hider", i64, %union.anon }
%"struct.std::__cxx11::basic_string<char>::_Alloc_hider" = type { ptr }
%union.anon = type { i64, [8 x i8] }
%class.cmCursesLongMessageForm = type { %class.cmCursesForm, %"class.std::__cxx11::basic_string", %"class.std::__cxx11::basic_string", i32, [2 x ptr] }
%class.cmCursesForm = type { ptr, ptr }
%struct._win_st = type { i16, i16, i16, i16, i16, i16, i16, i32, i32, i8, i8, i8, i8, i8, i8, i8, i8, i8, i32, ptr, i16, i16, i32, i32, ptr, %"struct._win_st::pdat", i16, %struct.cchar_t, i32 }
%"struct._win_st::pdat" = type { i16, i16, i16, i16, i16, i16 }
%struct.cchar_t = type { i32, [5 x i32], i32 }

@stdscr = external global ptr, align 8
@.str.1 = private unnamed_addr constant [17 x i8] c"CMake Version %s\00", align 1
@.str.2 = private unnamed_addr constant [3 x i8] c"%s\00", align 1
@__const._ZN23cmCursesLongMessageForm15UpdateStatusBarEv.fmt_s = private unnamed_addr constant [3 x i8] c"%s\00", align 1

; Function Attrs: mustprogress uwtable
define linkonce_odr dso_local void @_Z11curses_movejj(i32 noundef %0, i32 noundef %1) #0 comdat {
  %3 = alloca i32, align 4
  %4 = alloca i32, align 4
  store i32 %0, ptr %3, align 4
  store i32 %1, ptr %4, align 4
  %5 = load i32, ptr %3, align 4
  %6 = load i32, ptr %4, align 4
  %7 = call i32 @move(i32 noundef %5, i32 noundef %6)
  ret void
}

; Function Attrs: mustprogress uwtable
define dso_local void @_ZN23cmCursesLongMessageForm15UpdateStatusBarEv(ptr noundef nonnull align 8 dereferenceable(104) %0) unnamed_addr #0 align 2 {
  %2 = alloca ptr, align 8
  %3 = alloca i32, align 4
  %4 = alloca i32, align 4
  %5 = alloca [512 x i8], align 16
  %6 = alloca i64, align 8
  %7 = alloca i64, align 8
  %8 = alloca i32, align 4
  %9 = alloca [512 x i8], align 16
  %10 = alloca [128 x i8], align 16
  %11 = alloca i64, align 8
  %12 = alloca i64, align 8
  %13 = alloca [3 x i8], align 1
  store ptr %0, ptr %2, align 8
  %14 = load ptr, ptr %2, align 8
  %15 = load ptr, ptr @stdscr, align 8
  %16 = icmp ne ptr null, %15
  br i1 %16, label %17, label %23

17:                                               ; preds = %1
  %18 = load ptr, ptr @stdscr, align 8
  %19 = getelementptr inbounds %struct._win_st, ptr %18, i32 0, i32 2
  %20 = load i16, ptr %19, align 4
  %21 = sext i16 %20 to i32
  %22 = add nsw i32 %21, 1
  br label %24

23:                                               ; preds = %1
  br label %24

24:                                               ; preds = %23, %17
  %25 = phi i32 [ %22, %17 ], [ -1, %23 ]
  store i32 %25, ptr %4, align 4
  %26 = load ptr, ptr @stdscr, align 8
  %27 = icmp ne ptr null, %26
  br i1 %27, label %28, label %34

28:                                               ; preds = %24
  %29 = load ptr, ptr @stdscr, align 8
  %30 = getelementptr inbounds %struct._win_st, ptr %29, i32 0, i32 3
  %31 = load i16, ptr %30, align 2
  %32 = sext i16 %31 to i32
  %33 = add nsw i32 %32, 1
  br label %35

34:                                               ; preds = %24
  br label %35

35:                                               ; preds = %34, %28
  %36 = phi i32 [ %33, %28 ], [ -1, %34 ]
  store i32 %36, ptr %3, align 4
  %37 = getelementptr inbounds %class.cmCursesLongMessageForm, ptr %14, i32 0, i32 2
  %38 = call noundef i64 @_ZNKSt7__cxx1112basic_stringIcSt11char_traitsIcESaIcEE4sizeEv(ptr noundef nonnull align 8 dereferenceable(32) %37) #8
  store i64 %38, ptr %6, align 8
  %39 = load i64, ptr %6, align 8
  %40 = icmp uge i64 %39, 512
  br i1 %40, label %41, label %42

41:                                               ; preds = %35
  store i64 511, ptr %6, align 8
  br label %42

42:                                               ; preds = %41, %35
  %43 = getelementptr inbounds [512 x i8], ptr %5, i64 0, i64 0
  %44 = getelementptr inbounds %class.cmCursesLongMessageForm, ptr %14, i32 0, i32 2
  %45 = call noundef ptr @_ZNKSt7__cxx1112basic_stringIcSt11char_traitsIcESaIcEE5c_strEv(ptr noundef nonnull align 8 dereferenceable(32) %44) #8
  %46 = load i64, ptr %6, align 8
  %47 = call ptr @strncpy(ptr noundef %43, ptr noundef %45, i64 noundef %46) #8
  %48 = load i64, ptr %6, align 8
  store i64 %48, ptr %7, align 8
  br label %49

49:                                               ; preds = %55, %42
  %50 = load i64, ptr %7, align 8
  %51 = icmp ult i64 %50, 512
  br i1 %51, label %52, label %58

52:                                               ; preds = %49
  %53 = load i64, ptr %7, align 8
  %54 = getelementptr inbounds [512 x i8], ptr %5, i64 0, i64 %53
  store i8 32, ptr %54, align 1
  br label %55

55:                                               ; preds = %52
  %56 = load i64, ptr %7, align 8
  %57 = add i64 %56, 1
  store i64 %57, ptr %7, align 8
  br label %49, !llvm.loop !7

58:                                               ; preds = %49
  %59 = load i32, ptr %3, align 4
  %60 = icmp sge i32 %59, 0
  br i1 %60, label %61, label %66

61:                                               ; preds = %58
  %62 = load i32, ptr %3, align 4
  %63 = icmp slt i32 %62, 512
  br i1 %63, label %64, label %66

64:                                               ; preds = %61
  %65 = load i32, ptr %3, align 4
  store i32 %65, ptr %8, align 4
  br label %67

66:                                               ; preds = %61, %58
  store i32 511, ptr %8, align 4
  br label %67

67:                                               ; preds = %66, %64
  %68 = load i32, ptr %8, align 4
  %69 = sext i32 %68 to i64
  %70 = getelementptr inbounds [512 x i8], ptr %5, i64 0, i64 %69
  store i8 0, ptr %70, align 1
  %71 = getelementptr inbounds [128 x i8], ptr %10, i64 0, i64 0
  %72 = call noundef ptr @_ZN9cmVersion15GetCMakeVersionEv()
  %73 = call i32 (ptr, i64, ptr, ...) @snprintf(ptr noundef %71, i64 noundef 128, ptr noundef @.str.1, ptr noundef %72) #8
  %74 = load i32, ptr %8, align 4
  %75 = sext i32 %74 to i64
  %76 = getelementptr inbounds [128 x i8], ptr %10, i64 0, i64 0
  %77 = call i64 @strlen(ptr noundef %76) #11
  %78 = sub i64 %75, %77
  store i64 %78, ptr %11, align 8
  store i64 0, ptr %12, align 8
  br label %79

79:                                               ; preds = %86, %67
  %80 = load i64, ptr %12, align 8
  %81 = load i64, ptr %11, align 8
  %82 = icmp ult i64 %80, %81
  br i1 %82, label %83, label %89

83:                                               ; preds = %79
  %84 = load i64, ptr %12, align 8
  %85 = getelementptr inbounds [512 x i8], ptr %9, i64 0, i64 %84
  store i8 32, ptr %85, align 1
  br label %86

86:                                               ; preds = %83
  %87 = load i64, ptr %12, align 8
  %88 = add i64 %87, 1
  store i64 %88, ptr %12, align 8
  br label %79, !llvm.loop !8

89:                                               ; preds = %79
  %90 = getelementptr inbounds [512 x i8], ptr %9, i64 0, i64 0
  %91 = load i64, ptr %11, align 8
  %92 = getelementptr inbounds i8, ptr %90, i64 %91
  %93 = load i64, ptr %11, align 8
  %94 = sub i64 512, %93
  %95 = getelementptr inbounds [128 x i8], ptr %10, i64 0, i64 0
  %96 = call i32 (ptr, i64, ptr, ...) @snprintf(ptr noundef %92, i64 noundef %94, ptr noundef @.str.2, ptr noundef %95) #8
  %97 = load i32, ptr %8, align 4
  %98 = sext i32 %97 to i64
  %99 = getelementptr inbounds [512 x i8], ptr %9, i64 0, i64 %98
  store i8 0, ptr %99, align 1
  call void @llvm.memcpy.p0.p0.i64(ptr align 1 %13, ptr align 1 @__const._ZN23cmCursesLongMessageForm15UpdateStatusBarEv.fmt_s, i64 3, i1 false)
  %100 = load i32, ptr %4, align 4
  %101 = sub nsw i32 %100, 4
  call void @_Z11curses_movejj(i32 noundef %101, i32 noundef 0)
  %102 = load ptr, ptr @stdscr, align 8
  %103 = call i32 @wattr_on(ptr noundef %102, i32 noundef 65536, ptr noundef null)
  %104 = getelementptr inbounds [3 x i8], ptr %13, i64 0, i64 0
  %105 = getelementptr inbounds [512 x i8], ptr %5, i64 0, i64 0
  %106 = call i32 (ptr, ...) @printw(ptr noundef %104, ptr noundef %105)
  %107 = load ptr, ptr @stdscr, align 8
  %108 = call i32 @wattr_off(ptr noundef %107, i32 noundef 65536, ptr noundef null)
  %109 = load i32, ptr %4, align 4
  %110 = sub nsw i32 %109, 3
  call void @_Z11curses_movejj(i32 noundef %110, i32 noundef 0)
  %111 = getelementptr inbounds [3 x i8], ptr %13, i64 0, i64 0
  %112 = getelementptr inbounds [512 x i8], ptr %9, i64 0, i64 0
  %113 = call i32 (ptr, ...) @printw(ptr noundef %111, ptr noundef %112)
  %114 = getelementptr inbounds %class.cmCursesForm, ptr %14, i32 0, i32 1
  %115 = load ptr, ptr %114, align 8
  %116 = call i32 @pos_form_cursor(ptr noundef %115)
  ret void
}