; Function Attrs: mustprogress uwtable
define dso_local void @_ZN23cmCursesLongMessageForm15UpdateStatusBarEv(ptr noundef nonnull align 8 dereferenceable(104) %0) unnamed_addr #0 align 2 {
  %2 = alloca [512 x i8], align 16
  %3 = alloca [512 x i8], align 16
  %4 = alloca [128 x i8], align 16
  %5 = alloca [3 x i8], align 1
  %6 = load ptr, ptr @stdscr, align 8
  %.not = icmp eq ptr %6, null
  br i1 %.not, label %.thread, label %7

7:                                                ; preds = %1
  %8 = getelementptr inbounds i8, ptr %6, i64 4
  %9 = load i16, ptr %8, align 4
  %10 = sext i16 %9 to i32
  %11 = add nsw i32 %10, 1
  %12 = getelementptr inbounds i8, ptr %6, i64 6
  %13 = load i16, ptr %12, align 2
  %14 = sext i16 %13 to i32
  %15 = add nsw i32 %14, 1
  br label %.thread

.thread:                                          ; preds = %1, %7
  %16 = phi i32 [ %11, %7 ], [ -1, %1 ]
  %17 = phi i32 [ %15, %7 ], [ -1, %1 ]
  %18 = getelementptr inbounds i8, ptr %0, i64 48
  %19 = tail call noundef i64 @_ZNKSt7__cxx1112basic_stringIcSt11char_traitsIcESaIcEE4sizeEv(ptr noundef nonnull align 8 dereferenceable(32) %18) #13
  %spec.store.select = tail call i64 @llvm.umin.i64(i64 %19, i64 511)
  %20 = tail call noundef ptr @_ZNKSt7__cxx1112basic_stringIcSt11char_traitsIcESaIcEE5c_strEv(ptr noundef nonnull align 8 dereferenceable(32) %18) #13
  %21 = call ptr @strncpy(ptr noundef nonnull %2, ptr noundef %20, i64 noundef %spec.store.select) #13
  %scevgep = getelementptr i8, ptr %2, i64 %spec.store.select
  %22 = sub nuw nsw i64 512, %spec.store.select
  call void @llvm.memset.p0.i64(ptr noundef nonnull align 1 dereferenceable(1) %scevgep, i8 32, i64 %22, i1 false)
  %narrow = call i32 @llvm.umin.i32(i32 %17, i32 511)
  %.022 = zext nneg i32 %narrow to i64
  %23 = getelementptr inbounds [512 x i8], ptr %2, i64 0, i64 %.022
  store i8 0, ptr %23, align 1
  %24 = call noundef ptr @_ZN9cmVersion15GetCMakeVersionEv()
  %25 = call i32 (ptr, i64, ptr, ...) @snprintf(ptr noundef nonnull dereferenceable(1) %4, i64 noundef 128, ptr noundef nonnull @.str.1, ptr noundef %24) #13
  %26 = call i64 @strlen(ptr noundef nonnull dereferenceable(1) %4) #16
  %27 = sub i64 %.022, %26
  %.not30 = icmp eq i64 %26, %.022
  br i1 %.not30, label %._crit_edge, label %.lr.ph.preheader

.lr.ph.preheader:                                 ; preds = %.thread
  call void @llvm.memset.p0.i64(ptr nonnull align 16 %3, i8 32, i64 %27, i1 false)
  br label %._crit_edge

._crit_edge:                                      ; preds = %.lr.ph.preheader, %.thread
  %28 = getelementptr inbounds i8, ptr %3, i64 %27
  %29 = sub i64 512, %27
  %30 = call i32 (ptr, i64, ptr, ...) @snprintf(ptr noundef nonnull %28, i64 noundef %29, ptr noundef nonnull @__const._ZN23cmCursesLongMessageForm9PrintKeysEv.fmt_s, ptr noundef nonnull %4) #13
  %31 = getelementptr inbounds [512 x i8], ptr %3, i64 0, i64 %.022
  store i8 0, ptr %31, align 1
  call void @llvm.memcpy.p0.p0.i64(ptr noundef nonnull align 1 dereferenceable(3) %5, ptr noundef nonnull align 1 dereferenceable(3) @__const._ZN23cmCursesLongMessageForm9PrintKeysEv.fmt_s, i64 3, i1 false)
  %32 = add nsw i32 %16, -4
  %33 = call i32 @move(i32 noundef %32, i32 noundef 0)
  %34 = load ptr, ptr @stdscr, align 8
  %35 = call i32 @wattr_on(ptr noundef %34, i32 noundef 65536, ptr noundef null)
  %36 = call i32 (ptr, ...) @printw(ptr noundef nonnull %5, ptr noundef nonnull %2)
  %37 = load ptr, ptr @stdscr, align 8
  %38 = call i32 @wattr_off(ptr noundef %37, i32 noundef 65536, ptr noundef null)
  %39 = add nsw i32 %16, -3
  %40 = call i32 @move(i32 noundef %39, i32 noundef 0)
  %41 = call i32 (ptr, ...) @printw(ptr noundef nonnull %5, ptr noundef nonnull %3)
  %42 = getelementptr inbounds i8, ptr %0, i64 8
  %43 = load ptr, ptr %42, align 8
  %44 = call i32 @pos_form_cursor(ptr noundef %43)
  ret void
}